; Function Attrs: mustprogress nofree norecurse nosync nounwind willreturn memory(read, inaccessiblemem: none) uwtable
define dso_local noundef zeroext i1 @_ZN5ImGui17IsItemDeactivatedEv() local_unnamed_addr #31 {
  %1 = load ptr, ptr @GImGui, align 8, !tbaa !211
  %2 = getelementptr inbounds nuw i8, ptr %1, i64 7440
  %3 = load i32, ptr %2, align 8, !tbaa !771
  %4 = and i32 %3, 32
  %.not = icmp eq i32 %4, 0
  br i1 %.not, label %8, label %5

5:                                                ; preds = %0
  %6 = and i32 %3, 64
  %7 = icmp ne i32 %6, 0
  br label %18

8:                                                ; preds = %0
  %9 = getelementptr inbounds nuw i8, ptr %1, i64 7432
  %10 = getelementptr inbounds nuw i8, ptr %1, i64 5084
  %11 = load i32, ptr %10, align 4, !tbaa !595
  %12 = load i32, ptr %9, align 8, !tbaa !777
  %13 = icmp ne i32 %11, %12
  %.not10 = icmp eq i32 %11, 0
  %or.cond = or i1 %.not10, %13
  br i1 %or.cond, label %18, label %14

14:                                               ; preds = %8
  %15 = getelementptr inbounds nuw i8, ptr %1, i64 5044
  %16 = load i32, ptr %15, align 4, !tbaa !750
  %17 = icmp ne i32 %16, %11
  br label %18

18:                                               ; preds = %8, %14, %5
  %.0 = phi i1 [ %7, %5 ], [ false, %8 ], [ %17, %14 ]
  ret i1 %.0
}